target datalayout = "e-m:e-p270:32:32-p271:32:32-p272:64:64-i64:64-i128:128-f80:128-n8:16:32:64-S128"
target triple = "x86_64-pc-linux-gnu"

%struct.ssl_connection_st = type { %struct.ssl_st, ptr, i32, ptr, ptr, ptr, i32, ptr, i32, i32, i32, i32, %struct.OSSL_TIME, %struct.OSSL_TIME, %struct.ossl_statem_st, i32, ptr, ptr, i64, i64, i64, %struct.ossl_quic_tls_callbacks_st, ptr, ptr, %struct.anon, ptr, ptr, ptr, i32, ptr, %struct.ssl_dane_st, ptr, ptr, ptr, ptr, i32, [64 x i8], [64 x i8], [64 x i8], [64 x i8], [64 x i8], [64 x i8], [64 x i8], [64 x i8], [64 x i8], [64 x i8], [64 x i8], [64 x i8], ptr, [64 x i8], i64, i32, i64, [32 x i8], ptr, ptr, ptr, i64, ptr, [32 x i8], i64, i32, ptr, ptr, i32, i32, ptr, ptr, ptr, ptr, ptr, i64, ptr, ptr, i64, i32, i32, i32, i64, i32, i32, i64, i64, i64, %struct.anon.1, ptr, i32, ptr, ptr, ptr, i32, ptr, ptr, ptr, i32, i32, i32, i32, ptr, i64, i32, ptr, %struct.srp_ctx_st, ptr, %struct.record_layer_st, ptr, ptr, ptr, ptr, i64, i32, i32, i32, i64, i64, i64, ptr, ptr, ptr, ptr, ptr, i64, ptr, i64, ptr, i64 }
%struct.ssl_st = type { i32, ptr, ptr, ptr, %struct.CRYPTO_REF_COUNT, ptr, %struct.crypto_ex_data_st }
%struct.CRYPTO_REF_COUNT = type { i32 }
%struct.crypto_ex_data_st = type { ptr, ptr }
%struct.OSSL_TIME = type { i64 }
%struct.ossl_statem_st = type { i32, i32, i32, i32, i32, i32, i32, i32, i32, i32, i32, i32, i32, ptr, ptr, ptr, i8 }
%struct.ossl_quic_tls_callbacks_st = type { ptr, ptr, ptr, ptr, ptr, ptr }
%struct.anon = type { i64, [32 x i8], [32 x i8], ptr, ptr, i32, i32, i32, i32, [2 x i8], i32, i32, i32, i32, %struct.anon.0, [64 x i8], i64, [64 x i8], i64, i32, i32, ptr, i64, ptr, i64, i32, i8, i8, i16, ptr, i16 }
%struct.anon.0 = type { [128 x i8], i64, [128 x i8], i64, i64, i32, ptr, ptr, [4 x ptr], [4 x i16], i64, i32, ptr, i64, ptr, i64, ptr, ptr, ptr, i32, i64, ptr, i32, ptr, i64, ptr, i64, ptr, i64, ptr, ptr, ptr, ptr, i64, i64, ptr, ptr, i32, i32, i32, i32 }
%struct.ssl_dane_st = type { ptr, ptr, ptr, ptr, ptr, i32, i32, i32, i64 }
%struct.anon.1 = type { [29 x i8], ptr, ptr, ptr, i32, ptr, i16, i32, %struct.anon.2, i32, i32, i64, ptr, i64, ptr, i64, ptr, i64, ptr, i64, ptr, i64, ptr, ptr, ptr, ptr, ptr, ptr, ptr, i64, ptr, i64, i32, i32, i32, i32, ptr, i64, i32, i8, i32, [4 x i32], i32, i8, i8, i8, i8 }
%struct.anon.2 = type { ptr, ptr, ptr, i64 }
%struct.srp_ctx_st = type { ptr, ptr, ptr, ptr, ptr, ptr, ptr, ptr, ptr, ptr, ptr, ptr, ptr, ptr, i32, i64 }
%struct.record_layer_st = type { ptr, ptr, ptr, ptr, ptr, ptr, ptr, ptr, i64, i32, i64, [4 x i8], i64, i64, i8, ptr, i32, ptr, ptr, ptr, i64, i64, i64, i64, [32 x %struct.tls_record_st] }
%struct.tls_record_st = type { ptr, i32, i8, ptr, ptr, i64, i64, i16, [8 x i8] }
%struct.ssl_cipher_st = type { i32, ptr, ptr, i32, i32, i32, i32, i32, i32, i32, i32, i32, i32, i32, i32, i32 }

@.str = private unnamed_addr constant [36 x i8] c"../openssl/ssl/statem/statem_clnt.c\00", align 1
@__func__.tls_client_key_exchange_post_work = private unnamed_addr constant [34 x i8] c"tls_client_key_exchange_post_work\00", align 1

; Function Attrs: nounwind uwtable
define i32 @tls_client_key_exchange_post_work(ptr noundef %0) #0 {
  %2 = alloca i32, align 4
  %3 = alloca ptr, align 8
  %4 = alloca ptr, align 8
  %5 = alloca i64, align 8
  %6 = alloca i32, align 4
  store ptr %0, ptr %3, align 8, !tbaa !3
  call void @llvm.lifetime.start.p0(i64 8, ptr %4) #8
  store ptr null, ptr %4, align 8, !tbaa !122
  call void @llvm.lifetime.start.p0(i64 8, ptr %5) #8
  store i64 0, ptr %5, align 8, !tbaa !98
  %7 = load ptr, ptr %3, align 8, !tbaa !3
  %8 = getelementptr inbounds nuw %struct.ssl_connection_st, ptr %7, i32 0, i32 24
  %9 = getelementptr inbounds nuw %struct.anon, ptr %8, i32 0, i32 14
  %10 = getelementptr inbounds nuw %struct.anon.0, ptr %9, i32 0, i32 25
  %11 = load ptr, ptr %10, align 8, !tbaa !123
  store ptr %11, ptr %4, align 8, !tbaa !122
  %12 = load ptr, ptr %3, align 8, !tbaa !3
  %13 = getelementptr inbounds nuw %struct.ssl_connection_st, ptr %12, i32 0, i32 24
  %14 = getelementptr inbounds nuw %struct.anon, ptr %13, i32 0, i32 14
  %15 = getelementptr inbounds nuw %struct.anon.0, ptr %14, i32 0, i32 26
  %16 = load i64, ptr %15, align 8, !tbaa !124
  store i64 %16, ptr %5, align 8, !tbaa !98
  %17 = load ptr, ptr %3, align 8, !tbaa !3
  %18 = getelementptr inbounds nuw %struct.ssl_connection_st, ptr %17, i32 0, i32 24
  %19 = getelementptr inbounds nuw %struct.anon, ptr %18, i32 0, i32 14
  %20 = getelementptr inbounds nuw %struct.anon.0, ptr %19, i32 0, i32 6
  %21 = load ptr, ptr %20, align 8, !tbaa !88
  %22 = getelementptr inbounds nuw %struct.ssl_cipher_st, ptr %21, i32 0, i32 4
  %23 = load i32, ptr %22, align 4, !tbaa !91
  %24 = and i32 %23, 32
  %25 = icmp ne i32 %24, 0
  br i1 %25, label %26, label %32

26:                                               ; preds = %1
  %27 = load ptr, ptr %3, align 8, !tbaa !3
  %28 = call i32 @srp_generate_client_master_secret(ptr noundef %27)
  %29 = icmp ne i32 %28, 0
  br i1 %29, label %31, label %30

30:                                               ; preds = %26
  br label %55

31:                                               ; preds = %26
  store i32 1, ptr %2, align 4
  store i32 1, ptr %6, align 4
  br label %66

32:                                               ; preds = %1
  %33 = load ptr, ptr %4, align 8, !tbaa !122
  %34 = icmp eq ptr %33, null
  br i1 %34, label %35, label %47

35:                                               ; preds = %32
  %36 = load ptr, ptr %3, align 8, !tbaa !3
  %37 = getelementptr inbounds nuw %struct.ssl_connection_st, ptr %36, i32 0, i32 24
  %38 = getelementptr inbounds nuw %struct.anon, ptr %37, i32 0, i32 14
  %39 = getelementptr inbounds nuw %struct.anon.0, ptr %38, i32 0, i32 6
  %40 = load ptr, ptr %39, align 8, !tbaa !88
  %41 = getelementptr inbounds nuw %struct.ssl_cipher_st, ptr %40, i32 0, i32 4
  %42 = load i32, ptr %41, align 4, !tbaa !91
  %43 = and i32 %42, 8
  %44 = icmp ne i32 %43, 0
  br i1 %44, label %47, label %45

45:                                               ; preds = %35
  call void @ERR_new()
  call void @ERR_set_debug(ptr noundef @.str, i32 noundef 3612, ptr noundef @__func__.tls_client_key_exchange_post_work)
  %46 = load ptr, ptr %3, align 8, !tbaa !3
  call void (ptr, i32, i32, ptr, ...) @ossl_statem_fatal(ptr noundef %46, i32 noundef 80, i32 noundef 524550, ptr noundef null)
  br label %55

47:                                               ; preds = %35, %32
  %48 = load ptr, ptr %3, align 8, !tbaa !3
  %49 = load ptr, ptr %4, align 8, !tbaa !122
  %50 = load i64, ptr %5, align 8, !tbaa !98
  %51 = call i32 @ssl_generate_master_secret(ptr noundef %48, ptr noundef %49, i64 noundef %50, i32 noundef 1)
  %52 = icmp ne i32 %51, 0
  br i1 %52, label %54, label %53

53:                                               ; preds = %47
  store ptr null, ptr %4, align 8, !tbaa !122
  store i64 0, ptr %5, align 8, !tbaa !98
  br label %55

54:                                               ; preds = %47
  store ptr null, ptr %4, align 8, !tbaa !122
  store i64 0, ptr %5, align 8, !tbaa !98
  store i32 1, ptr %2, align 4
  store i32 1, ptr %6, align 4
  br label %66

55:                                               ; preds = %53, %45, %30
  %56 = load ptr, ptr %4, align 8, !tbaa !122
  %57 = load i64, ptr %5, align 8, !tbaa !98
  call void @CRYPTO_clear_free(ptr noundef %56, i64 noundef %57, ptr noundef @.str, i32 noundef 3658)
  %58 = load ptr, ptr %3, align 8, !tbaa !3
  %59 = getelementptr inbounds nuw %struct.ssl_connection_st, ptr %58, i32 0, i32 24
  %60 = getelementptr inbounds nuw %struct.anon, ptr %59, i32 0, i32 14
  %61 = getelementptr inbounds nuw %struct.anon.0, ptr %60, i32 0, i32 25
  store ptr null, ptr %61, align 8, !tbaa !123
  %62 = load ptr, ptr %3, align 8, !tbaa !3
  %63 = getelementptr inbounds nuw %struct.ssl_connection_st, ptr %62, i32 0, i32 24
  %64 = getelementptr inbounds nuw %struct.anon, ptr %63, i32 0, i32 14
  %65 = getelementptr inbounds nuw %struct.anon.0, ptr %64, i32 0, i32 26
  store i64 0, ptr %65, align 8, !tbaa !124
  store i32 0, ptr %2, align 4
  store i32 1, ptr %6, align 4
  br label %66

66:                                               ; preds = %55, %54, %31
  call void @llvm.lifetime.end.p0(i64 8, ptr %5) #8
  call void @llvm.lifetime.end.p0(i64 8, ptr %4) #8
  %67 = load i32, ptr %2, align 4
  ret i32 %67
}