; Function Attrs: nounwind uwtable
define range(i32 0, 2) i32 @tls_client_key_exchange_post_work(ptr noundef %0) local_unnamed_addr #0 {
  %2 = getelementptr inbounds nuw i8, ptr %0, i64 944
  %3 = load ptr, ptr %2, align 8, !tbaa !118
  %4 = getelementptr inbounds nuw i8, ptr %0, i64 952
  %5 = load i64, ptr %4, align 8, !tbaa !119
  %6 = getelementptr inbounds nuw i8, ptr %0, i64 768
  %7 = load ptr, ptr %6, align 8, !tbaa !86
  %8 = getelementptr inbounds nuw i8, ptr %7, i64 28
  %9 = load i32, ptr %8, align 4, !tbaa !89
  %10 = and i32 %9, 32
  %.not = icmp eq i32 %10, 0
  br i1 %.not, label %13, label %11

11:                                               ; preds = %1
  %12 = tail call i32 @srp_generate_client_master_secret(ptr noundef nonnull %0) #8
  %.not19 = icmp eq i32 %12, 0
  br i1 %.not19, label %19, label %20

13:                                               ; preds = %1
  %14 = icmp eq ptr %3, null
  %15 = and i32 %9, 8
  %.not17 = icmp eq i32 %15, 0
  %or.cond = and i1 %14, %.not17
  br i1 %or.cond, label %16, label %17

16:                                               ; preds = %13
  tail call void @ERR_new() #8
  tail call void @ERR_set_debug(ptr noundef nonnull @.str, i32 noundef 3612, ptr noundef nonnull @__func__.tls_client_key_exchange_post_work) #8
  tail call void (ptr, i32, i32, ptr, ...) @ossl_statem_fatal(ptr noundef nonnull %0, i32 noundef 80, i32 noundef 524550, ptr noundef null) #8
  br label %19

17:                                               ; preds = %13
  %18 = tail call i32 @ssl_generate_master_secret(ptr noundef nonnull %0, ptr noundef %3, i64 noundef %5, i32 noundef 1) #8
  %.not18 = icmp eq i32 %18, 0
  br i1 %.not18, label %19, label %20

19:                                               ; preds = %17, %11, %16
  %.014 = phi ptr [ %3, %11 ], [ null, %16 ], [ null, %17 ]
  %.0 = phi i64 [ %5, %11 ], [ %5, %16 ], [ 0, %17 ]
  tail call void @CRYPTO_clear_free(ptr noundef %.014, i64 noundef %.0, ptr noundef nonnull @.str, i32 noundef 3658) #8
  tail call void @llvm.memset.p0.i64(ptr noundef nonnull align 8 dereferenceable(16) %2, i8 0, i64 16, i1 false)
  br label %20

20:                                               ; preds = %17, %11, %19
  %.015 = phi i32 [ 0, %19 ], [ 1, %11 ], [ 1, %17 ]
  ret i32 %.015
}